
elf:     file format elf32-littlearm


Disassembly of section .plt:

000002f0 <__libc_init@plt-0x14>:
 2f0:	e52de004 	push	{lr}		; (str lr, [sp, #-4]!)
 2f4:	e59fe004 	ldr	lr, [pc, #4]	; 300 <__libc_init@plt-0x4>
 2f8:	e08fe00e 	add	lr, pc, lr
 2fc:	e5bef008 	ldr	pc, [lr, #8]!
 300:	00001ce4 	andeq	r1, r0, r4, ror #25

00000304 <__libc_init@plt>:
 304:	e28fc600 	add	ip, pc, #0, 12
 308:	e28cca01 	add	ip, ip, #4096	; 0x1000
 30c:	e5bcfce4 	ldr	pc, [ip, #3300]!	; 0xce4

00000310 <__cxa_atexit@plt>:
 310:	e28fc600 	add	ip, pc, #0, 12
 314:	e28cca01 	add	ip, ip, #4096	; 0x1000
 318:	e5bcfcdc 	ldr	pc, [ip, #3292]!	; 0xcdc

0000031c <puts@plt>:
 31c:	e28fc600 	add	ip, pc, #0, 12
 320:	e28cca01 	add	ip, ip, #4096	; 0x1000
 324:	e5bcfcd4 	ldr	pc, [ip, #3284]!	; 0xcd4

00000328 <printf@plt>:
 328:	e28fc600 	add	ip, pc, #0, 12
 32c:	e28cca01 	add	ip, ip, #4096	; 0x1000
 330:	e5bcfccc 	ldr	pc, [ip, #3276]!	; 0xccc

Disassembly of section .text:

00000334 <_start>:
 334:	e92d4800 	push	{fp, lr}
 338:	e28db004 	add	fp, sp, #4
 33c:	e24dd010 	sub	sp, sp, #16
 340:	e59f3050 	ldr	r3, [pc, #80]	; 398 <_start+0x64>
 344:	e08f3003 	add	r3, pc, r3
 348:	e59f204c 	ldr	r2, [pc, #76]	; 39c <_start+0x68>
 34c:	e7932002 	ldr	r2, [r3, r2]
 350:	e50b2014 	str	r2, [fp, #-20]
 354:	e59f2044 	ldr	r2, [pc, #68]	; 3a0 <_start+0x6c>
 358:	e7932002 	ldr	r2, [r3, r2]
 35c:	e50b2010 	str	r2, [fp, #-16]
 360:	e59f203c 	ldr	r2, [pc, #60]	; 3a4 <_start+0x70>
 364:	e7932002 	ldr	r2, [r3, r2]
 368:	e50b200c 	str	r2, [fp, #-12]
 36c:	e1a0200b 	mov	r2, fp
 370:	e2822004 	add	r2, r2, #4
 374:	e50b2008 	str	r2, [fp, #-8]
 378:	e24bc014 	sub	ip, fp, #20
 37c:	e51b0008 	ldr	r0, [fp, #-8]
 380:	e3a01000 	mov	r1, #0
 384:	e59f201c 	ldr	r2, [pc, #28]	; 3a8 <_start+0x74>
 388:	e7933002 	ldr	r3, [r3, r2]
 38c:	e1a02003 	mov	r2, r3
 390:	e1a0300c 	mov	r3, ip
 394:	ebffffda 	bl	304 <__libc_init@plt>
 398:	00001c98 	muleq	r0, r8, ip
 39c:	fffffff0 			; <UNDEFINED> instruction: 0xfffffff0
 3a0:	fffffff4 			; <UNDEFINED> instruction: 0xfffffff4
 3a4:	fffffff8 			; <UNDEFINED> instruction: 0xfffffff8
 3a8:	fffffffc 			; <UNDEFINED> instruction: 0xfffffffc

000003ac <atexit>:
 3ac:	e92d4800 	push	{fp, lr}
 3b0:	e28db004 	add	fp, sp, #4
 3b4:	e24dd008 	sub	sp, sp, #8
 3b8:	e50b0008 	str	r0, [fp, #-8]
 3bc:	e51b0008 	ldr	r0, [fp, #-8]
 3c0:	e3a01000 	mov	r1, #0
 3c4:	e59f3018 	ldr	r3, [pc, #24]	; 3e4 <atexit+0x38>
 3c8:	e08f3003 	add	r3, pc, r3
 3cc:	e1a02003 	mov	r2, r3
 3d0:	ebffffce 	bl	310 <__cxa_atexit@plt>
 3d4:	e1a03000 	mov	r3, r0
 3d8:	e1a00003 	mov	r0, r3
 3dc:	e24bd004 	sub	sp, fp, #4
 3e0:	e8bd8800 	pop	{fp, pc}
 3e4:	00001c30 	andeq	r1, r0, r0, lsr ip

000003e8 <main>:
 3e8:	4805      	ldr	r0, [pc, #20]	; (400 <main+0x18>)
 3ea:	b508      	push	{r3, lr}
 3ec:	4478      	add	r0, pc
 3ee:	f7ff ef96 	blx	31c <puts@plt>
 3f2:	4804      	ldr	r0, [pc, #16]	; (404 <main+0x1c>)
 3f4:	2107      	movs	r1, #7
 3f6:	4478      	add	r0, pc
 3f8:	f7ff ef96 	blx	328 <printf@plt>
 3fc:	2000      	movs	r0, #0
 3fe:	bd08      	pop	{r3, pc}
 400:	0000004c 	andeq	r0, r0, ip, asr #32
 404:	0000005e 	andeq	r0, r0, lr, asr r0
