
a.out:     file format elf32-littlearm


Disassembly of section .init:

000083d8 <_init>:
    83d8:	e92d4008 	push	{r3, lr}
    83dc:	eb000026 	bl	847c <call_weak_fn>
    83e0:	e8bd8008 	pop	{r3, pc}

Disassembly of section .plt:

000083e4 <.plt>:
    83e4:	e52de004 	push	{lr}		; (str lr, [sp, #-4]!)
    83e8:	e59fe004 	ldr	lr, [pc, #4]	; 83f4 <_init+0x1c>
    83ec:	e08fe00e 	add	lr, pc, lr
    83f0:	e5bef008 	ldr	pc, [lr, #8]!
    83f4:	00008444 	andeq	r8, r0, r4, asr #8
    83f8:	e28fc600 	add	ip, pc, #0, 12
    83fc:	e28cca08 	add	ip, ip, #8, 20	; 0x8000
    8400:	e5bcf444 	ldr	pc, [ip, #1092]!	; 0x444
    8404:	e28fc600 	add	ip, pc, #0, 12
    8408:	e28cca08 	add	ip, ip, #8, 20	; 0x8000
    840c:	e5bcf43c 	ldr	pc, [ip, #1084]!	; 0x43c
    8410:	e28fc600 	add	ip, pc, #0, 12
    8414:	e28cca08 	add	ip, ip, #8, 20	; 0x8000
    8418:	e5bcf434 	ldr	pc, [ip, #1076]!	; 0x434
    841c:	e28fc600 	add	ip, pc, #0, 12
    8420:	e28cca08 	add	ip, ip, #8, 20	; 0x8000
    8424:	e5bcf42c 	ldr	pc, [ip, #1068]!	; 0x42c
    8428:	e28fc600 	add	ip, pc, #0, 12
    842c:	e28cca08 	add	ip, ip, #8, 20	; 0x8000
    8430:	e5bcf424 	ldr	pc, [ip, #1060]!	; 0x424
    8434:	e28fc600 	add	ip, pc, #0, 12
    8438:	e28cca08 	add	ip, ip, #8, 20	; 0x8000
    843c:	e5bcf41c 	ldr	pc, [ip, #1052]!	; 0x41c

Disassembly of section .text:

00008440 <_start>:
    8440:	e3a0b000 	mov	fp, #0
    8444:	e3a0e000 	mov	lr, #0
    8448:	e49d1004 	pop	{r1}		; (ldr r1, [sp], #4)
    844c:	e1a0200d 	mov	r2, sp
    8450:	e52d2004 	push	{r2}		; (str r2, [sp, #-4]!)
    8454:	e52d0004 	push	{r0}		; (str r0, [sp, #-4]!)
    8458:	e59fc010 	ldr	ip, [pc, #16]	; 8470 <_start+0x30>
    845c:	e52dc004 	push	{ip}		; (str ip, [sp, #-4]!)
    8460:	e59f000c 	ldr	r0, [pc, #12]	; 8474 <_start+0x34>
    8464:	e59f300c 	ldr	r3, [pc, #12]	; 8478 <_start+0x38>
    8468:	ebffffeb 	bl	841c <_init+0x44>
    846c:	ebfffff0 	bl	8434 <_init+0x5c>
    8470:	00008668 	andeq	r8, r0, r8, ror #12
    8474:	000085ac 	andeq	r8, r0, ip, lsr #11
    8478:	00008604 	andeq	r8, r0, r4, lsl #12

0000847c <call_weak_fn>:
    847c:	e59f3014 	ldr	r3, [pc, #20]	; 8498 <call_weak_fn+0x1c>
    8480:	e59f2014 	ldr	r2, [pc, #20]	; 849c <call_weak_fn+0x20>
    8484:	e08f3003 	add	r3, pc, r3
    8488:	e7932002 	ldr	r2, [r3, r2]
    848c:	e3520000 	cmp	r2, #0
    8490:	012fff1e 	bxeq	lr
    8494:	eaffffe3 	b	8428 <_init+0x50>
    8498:	000083ac 	andeq	r8, r0, ip, lsr #7
    849c:	00000024 	andeq	r0, r0, r4, lsr #32

000084a0 <deregister_tm_clones>:
    84a0:	e92d4008 	push	{r3, lr}
    84a4:	e59f0020 	ldr	r0, [pc, #32]	; 84cc <deregister_tm_clones+0x2c>
    84a8:	e59f3020 	ldr	r3, [pc, #32]	; 84d0 <deregister_tm_clones+0x30>
    84ac:	e0603003 	rsb	r3, r0, r3
    84b0:	e3530006 	cmp	r3, #6
    84b4:	98bd8008 	popls	{r3, pc}
    84b8:	e59f3014 	ldr	r3, [pc, #20]	; 84d4 <deregister_tm_clones+0x34>
    84bc:	e3530000 	cmp	r3, #0
    84c0:	08bd8008 	popeq	{r3, pc}
    84c4:	e12fff33 	blx	r3
    84c8:	e8bd8008 	pop	{r3, pc}
    84cc:	00010868 	andeq	r0, r1, r8, ror #16
    84d0:	0001086b 	andeq	r0, r1, fp, ror #16
    84d4:	00000000 	andeq	r0, r0, r0

000084d8 <register_tm_clones>:
    84d8:	e92d4008 	push	{r3, lr}
    84dc:	e59f0028 	ldr	r0, [pc, #40]	; 850c <register_tm_clones+0x34>
    84e0:	e59f3028 	ldr	r3, [pc, #40]	; 8510 <register_tm_clones+0x38>
    84e4:	e0603003 	rsb	r3, r0, r3
    84e8:	e1a03143 	asr	r3, r3, #2
    84ec:	e0833fa3 	add	r3, r3, r3, lsr #31
    84f0:	e1b010c3 	asrs	r1, r3, #1
    84f4:	08bd8008 	popeq	{r3, pc}
    84f8:	e59f2014 	ldr	r2, [pc, #20]	; 8514 <register_tm_clones+0x3c>
    84fc:	e3520000 	cmp	r2, #0
    8500:	08bd8008 	popeq	{r3, pc}
    8504:	e12fff32 	blx	r2
    8508:	e8bd8008 	pop	{r3, pc}
    850c:	00010868 	andeq	r0, r1, r8, ror #16
    8510:	00010868 	andeq	r0, r1, r8, ror #16
    8514:	00000000 	andeq	r0, r0, r0

00008518 <__do_global_dtors_aux>:
    8518:	e92d4010 	push	{r4, lr}
    851c:	e59f4018 	ldr	r4, [pc, #24]	; 853c <__do_global_dtors_aux+0x24>
    8520:	e5d43000 	ldrb	r3, [r4]
    8524:	e3530000 	cmp	r3, #0
    8528:	18bd8010 	popne	{r4, pc}
    852c:	ebffffdb 	bl	84a0 <deregister_tm_clones>
    8530:	e3a03001 	mov	r3, #1
    8534:	e5c43000 	strb	r3, [r4]
    8538:	e8bd8010 	pop	{r4, pc}
    853c:	00010868 	andeq	r0, r1, r8, ror #16

00008540 <frame_dummy>:
    8540:	e59f0024 	ldr	r0, [pc, #36]	; 856c <frame_dummy+0x2c>
    8544:	e92d4008 	push	{r3, lr}
    8548:	e5903000 	ldr	r3, [r0]
    854c:	e3530000 	cmp	r3, #0
    8550:	0a000003 	beq	8564 <frame_dummy+0x24>
    8554:	e59f3014 	ldr	r3, [pc, #20]	; 8570 <frame_dummy+0x30>
    8558:	e3530000 	cmp	r3, #0
    855c:	0a000000 	beq	8564 <frame_dummy+0x24>
    8560:	e12fff33 	blx	r3
    8564:	e8bd4008 	pop	{r3, lr}
    8568:	eaffffda 	b	84d8 <register_tm_clones>
    856c:	00010744 	andeq	r0, r1, r4, asr #14
    8570:	00000000 	andeq	r0, r0, r0

00008574 <add>:
    8574:	e92d4800 	push	{fp, lr}
    8578:	e28db004 	add	fp, sp, #4
    857c:	e24dd008 	sub	sp, sp, #8
    8580:	e50b0008 	str	r0, [fp, #-8]
    8584:	e50b100c 	str	r1, [fp, #-12]
    8588:	e59f0018 	ldr	r0, [pc, #24]	; 85a8 <add+0x34>
    858c:	ebffff9f 	bl	8410 <_init+0x38>
    8590:	e51b2008 	ldr	r2, [fp, #-8]
    8594:	e51b300c 	ldr	r3, [fp, #-12]
    8598:	e0823003 	add	r3, r2, r3
    859c:	e1a00003 	mov	r0, r3
    85a0:	e24bd004 	sub	sp, fp, #4
    85a4:	e8bd8800 	pop	{fp, pc}
    85a8:	00008678 	andeq	r8, r0, r8, ror r6

000085ac <main>:
    85ac:	e92d4800 	push	{fp, lr}
    85b0:	e28db004 	add	fp, sp, #4
    85b4:	e24dd018 	sub	sp, sp, #24
    85b8:	e50b0018 	str	r0, [fp, #-24]	; 0xffffffe8
    85bc:	e50b101c 	str	r1, [fp, #-28]	; 0xffffffe4
    85c0:	e3a03003 	mov	r3, #3
    85c4:	e50b3008 	str	r3, [fp, #-8]
    85c8:	e3a03004 	mov	r3, #4
    85cc:	e50b300c 	str	r3, [fp, #-12]
    85d0:	e51b0008 	ldr	r0, [fp, #-8]
    85d4:	e51b100c 	ldr	r1, [fp, #-12]
    85d8:	ebffffe5 	bl	8574 <add>
    85dc:	e50b0010 	str	r0, [fp, #-16]
    85e0:	e59f0018 	ldr	r0, [pc, #24]	; 8600 <main+0x54>
    85e4:	e51b1010 	ldr	r1, [fp, #-16]
    85e8:	ebffff85 	bl	8404 <_init+0x2c>
    85ec:	ebffff81 	bl	83f8 <_init+0x20>
    85f0:	e3a03000 	mov	r3, #0
    85f4:	e1a00003 	mov	r0, r3
    85f8:	e24bd004 	sub	sp, fp, #4
    85fc:	e8bd8800 	pop	{fp, pc}
    8600:	00008694 	muleq	r0, r4, r6

00008604 <__libc_csu_init>:
    8604:	e92d45f8 	push	{r3, r4, r5, r6, r7, r8, sl, lr}
    8608:	e59f5050 	ldr	r5, [pc, #80]	; 8660 <__libc_csu_init+0x5c>
    860c:	e59f6050 	ldr	r6, [pc, #80]	; 8664 <__libc_csu_init+0x60>
    8610:	e08f5005 	add	r5, pc, r5
    8614:	e08f6006 	add	r6, pc, r6
    8618:	e0656006 	rsb	r6, r5, r6
    861c:	e1a07000 	mov	r7, r0
    8620:	e1a08001 	mov	r8, r1
    8624:	e1a0a002 	mov	sl, r2
    8628:	ebffff6a 	bl	83d8 <_init>
    862c:	e1b06146 	asrs	r6, r6, #2
    8630:	08bd85f8 	popeq	{r3, r4, r5, r6, r7, r8, sl, pc}
    8634:	e2455004 	sub	r5, r5, #4
    8638:	e3a04000 	mov	r4, #0
    863c:	e5b53004 	ldr	r3, [r5, #4]!
    8640:	e1a00007 	mov	r0, r7
    8644:	e1a01008 	mov	r1, r8
    8648:	e1a0200a 	mov	r2, sl
    864c:	e2844001 	add	r4, r4, #1
    8650:	e12fff33 	blx	r3
    8654:	e1540006 	cmp	r4, r6
    8658:	1afffff7 	bne	863c <__libc_csu_init+0x38>
    865c:	e8bd85f8 	pop	{r3, r4, r5, r6, r7, r8, sl, pc}
    8660:	00008124 	andeq	r8, r0, r4, lsr #2
    8664:	00008124 	andeq	r8, r0, r4, lsr #2

00008668 <__libc_csu_fini>:
    8668:	e12fff1e 	bx	lr

Disassembly of section .fini:

0000866c <_fini>:
    866c:	e92d4008 	push	{r3, lr}
    8670:	e8bd8008 	pop	{r3, pc}
